(lp0
(S'Best'
p1
S'Actress'
p2
tp3
a(S'Best'
p4
S'Motion'
p5
S'Picture'
p6
tp7
a(S'Best'
p8
S'Actor'
p9
tp10
a(S'Best'
p11
S'Picture'
p12
tp13
a(S'Best'
p14
S'Original'
p15
S'Song'
p16
tp17
a(S'Best'
p18
S'Television'
p19
S'Series'
p20
tp21
a(S'Best'
p22
S'Supporting'
p23
S'Actress'
p24
tp25
a(S'Best'
p26
S'Original'
p27
S'Score'
p28
tp29
a(S'Best'
p30
S'Actress'
p31
S'in'
p32
S'a'
p33
S'Motion'
p34
S'Picture'
p35
tp36
a(S'Best'
p37
S'Screenplay'
p38
tp39
a(S'Best'
p40
S'Supporting'
p41
S'Actress'
p42
S'in'
p43
g33
S'Motion'
p44
S'Picture'
p45
tp46
a(S'Best'
p47
S'Director'
p48
tp49
a(S'Best'
p50
S'Actor'
p51
S'in'
p52
g33
S'Motion'
p53
S'Picture'
p54
tp55
a(S'Best'
p56
S'Drama'
p57
tp58
a(S'Best'
p59
S'Supporting'
p60
S'Actor'
p61
tp62
a(S'Best'
p63
S'Actor'
p64
S'in'
p65
S'Motion'
p66
S'Picture'
p67
tp68
a(S'Best'
p69
S'Actor'
p70
S'in'
p71
g33
S'Television'
p72
S'Series'
p73
tp74
a(S'Best'
p75
S'Motion'
p76
S'Picture'
p77
S'Drama'
p78
tp79
a(S'Best'
p80
S'Limited'
p81
S'Series'
p82
tp83
a(S'Best'
p84
S'Actress'
p85
S'in'
p86
S'Motion'
p87
S'Picture'
p88
tp89
a(S'Best'
p90
S'Animated'
p91
S'Film'
p92
tp93
a(S'Best'
p94
S'Dressed'
p95
tp96
a(S'Best'
p97
S'Foreign'
p98
S'Film'
p99
tp100
a(S'Best'
p101
S'Animated'
p102
S'Feature'
p103
tp104
a(S'Best'
p105
S'Foreign'
p106
S'Language'
p107
S'Film'
p108
tp109
a(S'Best'
p110
S'Film'
p111
tp112
a(S'Best'
p113
S'Animated'
p114
S'Feature'
p115
S'Film'
p116
tp117
a(S'Best'
p118
S'Comedy'
p119
S'Series'
p120
tp121
a(S'Best'
p122
S'Comedy'
p123
tp124
a(S'Best'
p125
S'Actress'
p126
S'in'
p127
g33
S'Limited'
p128
S'Series'
p129
tp130
a(S'Best'
p131
S'Actress'
p132
S'in'
p133
g33
S'Television'
p134
S'Series'
p135
tp136
a(S'Best'
p137
S'Actor'
p138
S'in'
p139
g33
S'Limited'
p140
S'Series'
p141
tp142
a(S'Best'
p143
S'Performance'
p144
S'by'
p145
S'an'
p146
S'Actor'
p147
S'in'
p148
g33
S'Motion'
p149
S'Picture'
p150
tp151
a(S'Best'
p152
S'Performance'
p153
S'by'
p154
S'an'
p155
S'Actress'
p156
S'in'
p157
g33
S'Motion'
p158
S'Picture'
p159
tp160
a(S'Best'
p161
S'Picture'
p162
S'Drama'
p163
tp164
a(S'Best'
p165
S'Actor'
p166
S'in'
p167
g33
S'Drama'
p168
tp169
a(S'Best'
p170
S'Actress'
p171
S'in'
p172
g33
S'Drama'
p173
tp174
a(S'Best'
p175
S'Animated'
p176
S'Motion'
p177
S'Picture'
p178
tp179
a(S'Best'
p180
S'Drama'
p181
S'Series'
p182
tp183
a(S'Best'
p184
S'Animated'
p185
S'Movie'
p186
tp187
a(S'Best'
p188
S'Song'
p189
tp190
a(S'Best'
p191
S'Actress'
p192
S'in'
p193
g33
S'Limited'
p194
S'Series'
p195
S'or'
p196
S'Television'
p197
S'Movie'
p198
tp199
a(S'Best'
p200
S'Actor'
p201
S'in'
p202
g33
S'Television'
p203
S'Movie'
p204
S'or'
p205
S'Miniseries'
p206
tp207
a(S'Best'
p208
S'Supporting'
p209
tp210
a(S'Best'
p211
S'Original'
p212
S'Score'
p213
S'and'
p214
S'Best'
p215
S'Original'
p216
S'Song'
p217
tp218
a(S'Best'
p219
S'and'
p220
S'Riskiest'
p221
S'Looks'
p222
S'of'
p223
S'the'
p224
S'Night'
p225
tp226
a(S'Best'
p227
S'Motion'
p228
tp229
a(S'Best'
p230
S'Performance'
p231
S'by'
p232
S'an'
p233
S'Actress'
p234
tp235
a(S'Best'
p236
S'Actress'
p237
S'in'
p238
g33
S'Comedy'
p239
tp240
a(S'Best'
p241
S'Motion'
p242
S'Picture'
p243
S'Musical'
p244
S'or'
p245
S'Comedy'
p246
tp247
a(S'Best'
p248
S'Supporting'
p249
S'Actor'
p250
S'in'
p251
g33
S'Television'
p252
S'Series'
p253
tp254
a(S'Best'
p255
S'Actress'
p256
S'in'
p257
g33
S'Musical'
p258
S'or'
p259
S'Comedy'
p260
tp261
a(S'Best'
p262
S'Performance'
p263
S'by'
p264
S'an'
p265
S'Actress'
p266
S'in'
p267
g33
S'Television'
p268
S'Series'
p269
tp270
a(S'Best'
p271
S'Performance'
p272
S'by'
p273
S'an'
p274
S'Actress'
p275
S'in'
p276
g33
S'Supporting'
p277
S'Role'
p278
S'in'
p279
S'any'
p280
S'Motion'
p281
S'Picture'
p282
tp283
a(S'Best'
p284
S'Actress'
p285
S'in'
p286
g33
S'Television'
p287
S'Movie'
p288
S'or'
p289
S'Miniseries'
p290
tp291
a(S'Best'
p292
S'Television'
p293
S'Series'
p294
S'Actress'
p295
tp296
a(S'Best'
p297
S'Animated'
p298
tp299
a(S'Best'
p300
S'Actor'
p301
S'in'
p302
g33
S'Motion'
p303
S'Picture'
p304
S'Drama'
p305
tp306
a(S'Best'
p307
S'Score'
p308
tp309
a(S'Best'
p310
S'Supporting'
p311
S'Actress'
p312
S'in'
p313
g33
S'Series'
p314
tp315
a(S'Best'
p316
S'Limited'
p317
S'Series'
p318
S'or'
p319
S'Television'
p320
S'Movie'
p321
tp322
a(S'Best'
p323
S'Actress'
p324
S'in'
p325
g33
S'Motion'
p326
S'Picture'
p327
S'Drama'
p328
tp329
a(S'Best'
p330
S'Limited'
p331
tp332
a(S'Best'
p333
S'Supporting'
p334
S'Actor'
p335
S'in'
p336
g33
S'Motion'
p337
S'Picture'
p338
tp339
a(S'Best'
p340
S'Television'
p341
S'Series'
p342
S'Actor'
p343
tp344
a(S'Best'
p345
S'Actress'
p346
S'Drama'
p347
tp348
a(S'Best'
p349
S'Foreign'
p350
S'Language'
p351
tp352
a(S'Best'
p353
S'Movie'
p354
tp355
a(S'Best'
p356
S'Actor'
p357
S'in'
p358
g33
S'Comedy'
p359
S'Series'
p360
tp361
a(S'Best'
p362
S'Performance'
p363
tp364
a(S'Best'
p365
S'Comedy'
p366
S'or'
p367
S'Musical'
p368
tp369
a(S'Best'
p370
S'Animated'
p371
S'Picture'
p372
tp373
a(S'Best'
p374
S'Musical'
p375
S'or'
p376
S'Comedy'
p377
tp378
a(S'Best'
p379
S'Actress'
p380
S'in'
p381
g33
S'Motion'
p382
S'Picture'
p383
S'Comedy'
p384
S'or'
p385
S'Musical'
p386
tp387
a(S'Best'
p388
S'Performance'
p389
S'by'
p390
S'an'
p391
S'Actor'
p392
S'in'
p393
g33
S'Television'
p394
S'Series'
p395
tp396
a(S'Best'
p397
S'Miniseries'
p398
S'or'
p399
S'Motion'
p400
S'Picture'
p401
S'Made'
p402
S'for'
p403
S'Television'
p404
tp405
a(S'Best'
p406
S'Actor'
p407
S'Drama'
p408
tp409
a(S'Best'
p410
S'Drama'
p411
S'Motion'
p412
S'Picture'
p413
tp414
a(S'Best'
p415
S'Actress'
p416
S'Motion'
p417
S'Picture'
p418
tp419
a(S'Best'
p420
S'Actor'
p421
S'Motion'
p422
S'Picture'
p423
tp424
a(S'Best'
p425
S'Supporting'
p426
S'Actress'
p427
S'in'
p428
g33
S'Film'
p429
tp430
a(S'Best'
p431
S'Actor'
p432
S'in'
p433
g33
S'Miniseries'
p434
tp435
a(S'Best'
p436
S'Performance'
p437
S'by'
p438
S'an'
p439
S'Actress'
p440
S'in'
p441
g33
S'Supporting'
p442
S'Role'
p443
tp444
a(S'Best'
p445
S'Speech'
p446
tp447
a(S'Best'
p448
S'Actor'
p449
S'in'
p450
g33
S'Comedy'
p451
S'or'
p452
S'Musical'
p453
tp454
a(S'Best'
p455
S'Actor'
p456
S'in'
p457
g33
S'Musical'
p458
S'or'
p459
S'Comedy'
p460
S'Film'
p461
tp462
a(S'Best'
p463
S'Television'
p464
tp465
a(S'Best'
p466
S'Actor'
p467
S'in'
p468
g33
S'Comedy'
p469
tp470
a(S'Best'
p471
S'Actor'
p472
S'in'
p473
g33
S'Musical'
p474
S'or'
p475
S'Comedy'
p476
tp477
a(S'Best'
p478
S'Performance'
p479
S'by'
p480
S'an'
p481
S'Actor'
p482
tp483
a(S'Best'
p484
S'Foods'
p485
tp486
a(S'Best'
p487
S'Television'
p488
S'Series'
p489
S'Drama'
p490
tp491
a(S'Best'
p492
S'Actor'
p493
S'in'
p494
g33
S'Limited'
p495
S'Television'
p496
S'Series'
p497
tp498
a(S'Best'
p499
S'Drama'
p500
S'Film'
p501
tp502
a(S'Best'
p503
S'Actress'
p504
S'in'
p505
g33
S'Limited'
p506
tp507
a(S'Best'
p508
S'Supporting'
p509
S'Actress'
p510
S'for'
p511
S'Fences'
p512
tp513
a(S'Best'
p514
S'Original'
p515
S'Screenplay'
p516
tp517
a(S'Best'
p518
S'Performance'
p519
S'by'
p520
S'an'
p521
S'Actress'
p522
S'In'
p523
S'A'
p524
S'Television'
p525
S'Series'
p526
tp527
a(S'Best'
p528
S'Performance'
p529
S'by'
p530
S'an'
p531
S'Actress'
p532
S'in'
p533
g33
S'Limited'
p534
S'Series'
p535
tp536
a(S'Best'
p537
S'Actress'
p538
S'in'
p539
g33
S'Supporting'
p540
S'Role'
p541
tp542
a(S'Best'
p543
S'Actor'
p544
S'in'
p545
g33
S'Limited'
p546
tp547
a(S'Best'
p548
S'Golden'
p549
S'Globe'
p550
tp551
a(S'Best'
p552
S'Actor'
p553
S'Limited'
p554
tp555
a(S'Best'
p556
S'Supporting'
p557
S'Actor'
p558
S'in'
p559
g33
S'Series'
p560
tp561
a(S'Best'
p562
S'Original'
p563
S'Song'
p564
S'in'
p565
g33
S'Motion'
p566
S'Picture'
p567
tp568
a(S'Best'
p569
S'Actor'
p570
S'in'
p571
g33
S'Drama'
p572
S'Film'
p573
tp574
a(S'Best'
p575
S'Musical'
p576
tp577
a(S'Best'
p578
S'Series'
p579
tp580
a(S'Best'
p581
S'Drama'
p582
S'Actress'
p583
tp584
a(S'Best'
p585
S'of'
p586
S'Luck'
p587
tp588
a(S'Best'
p589
S'Television'
p590
S'Limited'
p591
S'Series'
p592
S'or'
p593
S'Motion'
p594
S'Picture'
p595
S'Made'
p596
S'for'
p597
S'Television'
p598
tp599
a(S'Best'
p600
S'Actress'
p601
S'in'
p602
g33
S'Drama'
p603
S'Series'
p604
tp605
a(S'Best'
p606
S'Actress'
p607
S'in'
p608
g33
S'Motion'
p609
S'Picture'
p610
S'Musical'
p611
S'or'
p612
S'Comedy'
p613
tp614
a(S'Best'
p615
S'Actress'
p616
S'in'
p617
g33
S'Motion'
p618
tp619
a(S'Best'
p620
S'Original'
p621
S'Score'
p622
S'in'
p623
g33
S'Motion'
p624
S'Picture'
p625
tp626
a(S'Best'
p627
S'Original'
p628
tp629
a(S'Best'
p630
S'Wishes'
p631
tp632
a(S'Best'
p633
S'Actor'
p634
S'in'
p635
g33
S'Comedy'
p636
S'or'
p637
S'Musical'
p638
S'for'
p639
S'La'
p640
S'La'
p641
S'Land'
p642
tp643
a(S'Best'
p644
S'Performance'
p645
S'by'
p646
S'an'
p647
S'Actor'
p648
S'in'
p649
g33
S'Motion'
p650
S'Picture'
p651
S'Drama'
p652
tp653
a(S'Best'
p654
S'Motion'
p655
S'Picture'
p656
S'Animated'
p657
tp658
a(S'Best'
p659
S'Actor'
p660
S'in'
p661
g33
S'Miniseries'
p662
S'or'
p663
S'Television'
p664
S'Film'
p665
tp666
a(S'Best'
p667
S'Motion'
p668
S'Picture'
p669
S'Comedy'
p670
S'or'
p671
S'Musical'
p672
tp673
a(S'Best'
p674
S'Performance'
p675
S'by'
p676
S'an'
p677
S'Actor'
p678
S'in'
p679
g33
S'Supporting'
p680
S'Role'
p681
S'in'
p682
g33
S'Series'
p683
tp684
a(S'Best'
p685
S'Actor'
p686
S'Comedy'
p687
tp688
a(S'Best'
p689
S'Comedy'
p690
S'or'
p691
S'Musical'
p692
S'Series'
p693
S'Actor'
p694
tp695
a(S'Best'
p696
S'Original'
p697
S'Score'
p698
S'Motion'
p699
S'Picture'
p700
tp701
a(S'Best'
p702
S'Television'
p703
S'Series'
p704
S'Musical'
p705
S'or'
p706
S'Comedy'
p707
tp708
a(S'Best'
p709
S'Film'
p710
S'Director'
p711
tp712
a(S'Best'
p713
S'Actress'
p714
S'in'
p715
g33
S'Leading'
p716
S'Role'
p717
S'in'
p718
g33
S'Series'
p719
tp720
a(S'Best'
p721
S'and'
p722
S'Worst'
p723
S'Dressed'
p724
tp725
a(S'Best'
p726
S'Television'
p727
S'Series'
p728
S'Comedy'
p729
S'or'
p730
S'Musical'
p731
tp732
a(S'Best'
p733
S'Performance'
p734
S'by'
p735
S'an'
p736
S'Actor'
p737
S'in'
p738
g33
S'Limited'
p739
S'Series'
p740
S'or'
p741
g33
S'Motion'
p742
S'Picture'
p743
S'Made'
p744
S'for'
p745
S'Television'
p746
tp747
a(S'Best'
p748
S'Performance'
p749
S'by'
p750
S'an'
p751
S'Actress'
p752
S'in'
p753
g33
S'Motion'
p754
S'Picture'
p755
S'Drama'
p756
tp757
a(S'Best'
p758
S'Actress'
p759
S'in'
p760
g33
S'Television'
p761
tp762
a(S'Best'
p763
S'Limited'
p764
S'Series'
p765
S'or'
p766
S'Motion'
p767
S'Picture'
p768
S'Made'
p769
S'for'
p770
S'Television'
p771
tp772
a.