(lp0
(S'Best'
p1
S'Actress'
p2
tp3
a(S'Best'
p4
S'Motion'
p5
S'Picture'
p6
tp7
a(S'Best'
p8
S'Actor'
p9
tp10
a(S'Best'
p11
S'Picture'
p12
tp13
a(S'Best'
p14
S'Original'
p15
S'Song'
p16
tp17
a(S'Best'
p18
S'Television'
p19
S'Series'
p20
tp21
a(S'Best'
p22
S'Supporting'
p23
S'Actress'
p24
tp25
a(S'Best'
p26
S'Original'
p27
S'Score'
p28
tp29
a(S'Best'
p30
S'Actress'
p31
S'in'
p32
S'a'
p33
S'Motion'
p34
S'Picture'
p35
tp36
a(S'Best'
p37
S'Screenplay'
p38
tp39
a(S'Best'
p40
S'Supporting'
p41
S'Actress'
p42
S'in'
p43
g33
S'Motion'
p44
S'Picture'
p45
tp46
a(S'Best'
p47
S'Director'
p48
tp49
a(S'Best'
p50
S'Actor'
p51
S'in'
p52
g33
S'Motion'
p53
S'Picture'
p54
tp55
a(S'Best'
p56
S'Drama'
p57
tp58
a(S'Best'
p59
S'Supporting'
p60
S'Actor'
p61
tp62
a(S'Best'
p63
S'Actor'
p64
S'in'
p65
S'Motion'
p66
S'Picture'
p67
tp68
a(S'Best'
p69
S'Actor'
p70
S'in'
p71
g33
S'Television'
p72
S'Series'
p73
tp74
a(S'Best'
p75
S'Motion'
p76
S'Picture'
p77
S'Drama'
p78
tp79
a(S'Best'
p80
S'Limited'
p81
S'Series'
p82
tp83
a(S'Best'
p84
S'Actress'
p85
S'in'
p86
S'Motion'
p87
S'Picture'
p88
tp89
a(S'Best'
p90
S'Animated'
p91
S'Film'
p92
tp93
a(S'Best'
p94
S'Dressed'
p95
tp96
a(S'Best'
p97
S'Foreign'
p98
S'Film'
p99
tp100
a(S'Best'
p101
S'Animated'
p102
S'Feature'
p103
tp104
a(S'Best'
p105
S'Film'
p106
tp107
a(S'Best'
p108
S'Foreign'
p109
S'Language'
p110
S'Film'
p111
tp112
a(S'Best'
p113
S'Animated'
p114
S'Feature'
p115
S'Film'
p116
tp117
a(S'Best'
p118
S'Comedy'
p119
S'Series'
p120
tp121
a(S'Best'
p122
S'Comedy'
p123
tp124
a(S'Best'
p125
S'Actress'
p126
S'in'
p127
g33
S'Limited'
p128
S'Series'
p129
tp130
a(S'Best'
p131
S'Actress'
p132
S'in'
p133
g33
S'Television'
p134
S'Series'
p135
tp136
a(S'Best'
p137
S'Actor'
p138
S'in'
p139
g33
S'Limited'
p140
S'Series'
p141
tp142
a(S'Best'
p143
S'Performance'
p144
S'by'
p145
S'an'
p146
S'Actor'
p147
S'in'
p148
g33
S'Motion'
p149
S'Picture'
p150
tp151
a(S'Best'
p152
S'Actor'
p153
S'in'
p154
g33
S'Drama'
p155
tp156
a(S'Best'
p157
S'Performance'
p158
S'by'
p159
S'an'
p160
S'Actress'
p161
S'in'
p162
g33
S'Motion'
p163
S'Picture'
p164
tp165
a(S'Best'
p166
S'Picture'
p167
S'Drama'
p168
tp169
a(S'Best'
p170
S'Actress'
p171
S'in'
p172
g33
S'Drama'
p173
tp174
a(S'Best'
p175
S'Animated'
p176
S'Motion'
p177
S'Picture'
p178
tp179
a(S'Best'
p180
S'Drama'
p181
S'Series'
p182
tp183
a(S'Best'
p184
S'Animated'
p185
S'Movie'
p186
tp187
a(S'Best'
p188
S'Song'
p189
tp190
a(S'Best'
p191
S'Actress'
p192
S'in'
p193
g33
S'Limited'
p194
S'Series'
p195
S'or'
p196
S'Television'
p197
S'Movie'
p198
tp199
a(S'Best'
p200
S'Actor'
p201
S'in'
p202
g33
S'Television'
p203
S'Movie'
p204
S'or'
p205
S'Miniseries'
p206
tp207
a(S'Best'
p208
S'Supporting'
p209
tp210
a(S'Best'
p211
S'Original'
p212
S'Score'
p213
S'and'
p214
S'Best'
p215
S'Original'
p216
S'Song'
p217
tp218
a(S'Best'
p219
S'and'
p220
S'Riskiest'
p221
S'Looks'
p222
S'of'
p223
S'the'
p224
S'Night'
p225
tp226
a(S'Best'
p227
S'Motion'
p228
tp229
a(S'Best'
p230
S'Performance'
p231
S'by'
p232
S'an'
p233
S'Actress'
p234
tp235
a(S'Best'
p236
S'Actress'
p237
S'in'
p238
g33
S'Comedy'
p239
tp240
a(S'Best'
p241
S'Motion'
p242
S'Picture'
p243
S'Musical'
p244
S'or'
p245
S'Comedy'
p246
tp247
a(S'Best'
p248
S'Supporting'
p249
S'Actor'
p250
S'in'
p251
g33
S'Television'
p252
S'Series'
p253
tp254
a(S'Best'
p255
S'Actress'
p256
S'in'
p257
g33
S'Musical'
p258
S'or'
p259
S'Comedy'
p260
tp261
a(S'Best'
p262
S'Actress'
p263
S'in'
p264
g33
S'Television'
p265
S'Movie'
p266
S'or'
p267
S'Miniseries'
p268
tp269
a(S'Best'
p270
S'Television'
p271
S'Series'
p272
S'Actress'
p273
tp274
a(S'Best'
p275
S'Performance'
p276
S'by'
p277
S'an'
p278
S'Actress'
p279
S'in'
p280
g33
S'Television'
p281
S'Series'
p282
tp283
a(S'Best'
p284
S'Performance'
p285
S'by'
p286
S'an'
p287
S'Actress'
p288
S'in'
p289
g33
S'Supporting'
p290
S'Role'
p291
S'in'
p292
S'any'
p293
S'Motion'
p294
S'Picture'
p295
tp296
a(S'Best'
p297
S'Actor'
p298
S'in'
p299
g33
S'Motion'
p300
S'Picture'
p301
S'Drama'
p302
tp303
a(S'Best'
p304
S'Animated'
p305
tp306
a(S'Best'
p307
S'Score'
p308
tp309
a(S'Best'
p310
S'Supporting'
p311
S'Actress'
p312
S'in'
p313
g33
S'Series'
p314
tp315
a(S'Best'
p316
S'Limited'
p317
S'Series'
p318
S'or'
p319
S'Television'
p320
S'Movie'
p321
tp322
a(S'Best'
p323
S'Limited'
p324
tp325
a(S'Best'
p326
S'Actress'
p327
S'in'
p328
g33
S'Motion'
p329
S'Picture'
p330
S'Drama'
p331
tp332
a(S'Best'
p333
S'Supporting'
p334
S'Actor'
p335
S'in'
p336
g33
S'Motion'
p337
S'Picture'
p338
tp339
a(S'Best'
p340
S'Television'
p341
S'Series'
p342
S'Actor'
p343
tp344
a(S'Best'
p345
S'Movie'
p346
tp347
a(S'Best'
p348
S'Actress'
p349
S'Drama'
p350
tp351
a(S'Best'
p352
S'Foreign'
p353
S'Language'
p354
tp355
a(S'Best'
p356
S'Actor'
p357
S'in'
p358
g33
S'Comedy'
p359
S'Series'
p360
tp361
a(S'Best'
p362
S'Performance'
p363
tp364
a(S'Best'
p365
S'Comedy'
p366
S'or'
p367
S'Musical'
p368
tp369
a(S'Best'
p370
S'Animated'
p371
S'Picture'
p372
tp373
a(S'Best'
p374
S'Miniseries'
p375
S'or'
p376
S'Motion'
p377
S'Picture'
p378
S'Made'
p379
S'for'
p380
S'Television'
p381
tp382
a(S'Best'
p383
S'Performance'
p384
S'by'
p385
S'an'
p386
S'Actor'
p387
S'in'
p388
g33
S'Television'
p389
S'Series'
p390
tp391
a(S'Best'
p392
S'Actress'
p393
S'in'
p394
g33
S'Motion'
p395
S'Picture'
p396
S'Comedy'
p397
S'or'
p398
S'Musical'
p399
tp400
a(S'Best'
p401
S'Musical'
p402
S'or'
p403
S'Comedy'
p404
tp405
a(S'Best'
p406
S'Drama'
p407
S'Motion'
p408
S'Picture'
p409
tp410
a(S'Best'
p411
S'Actor'
p412
S'Drama'
p413
tp414
a(S'Best'
p415
S'Actress'
p416
S'Motion'
p417
S'Picture'
p418
tp419
a(S'Best'
p420
S'Actor'
p421
S'Motion'
p422
S'Picture'
p423
tp424
a(S'Best'
p425
S'Supporting'
p426
S'Actress'
p427
S'in'
p428
g33
S'Film'
p429
tp430
a(S'Best'
p431
S'Actor'
p432
S'in'
p433
g33
S'Miniseries'
p434
tp435
a(S'Best'
p436
S'Performance'
p437
S'by'
p438
S'an'
p439
S'Actress'
p440
S'in'
p441
g33
S'Supporting'
p442
S'Role'
p443
tp444
a(S'Best'
p445
S'Speech'
p446
tp447
a(S'Best'
p448
S'Actor'
p449
S'in'
p450
g33
S'Comedy'
p451
S'or'
p452
S'Musical'
p453
tp454
a(S'Best'
p455
S'Actor'
p456
S'in'
p457
g33
S'Musical'
p458
S'or'
p459
S'Comedy'
p460
S'Film'
p461
tp462
a(S'Best'
p463
S'Actor'
p464
S'in'
p465
g33
S'Comedy'
p466
tp467
a(S'Best'
p468
S'Television'
p469
tp470
a(S'Best'
p471
S'Actor'
p472
S'in'
p473
g33
S'Musical'
p474
S'or'
p475
S'Comedy'
p476
tp477
a(S'Best'
p478
S'Performance'
p479
S'by'
p480
S'an'
p481
S'Actor'
p482
tp483
a(S'Best'
p484
S'Foods'
p485
tp486
a(S'Best'
p487
S'Television'
p488
S'Series'
p489
S'Drama'
p490
tp491
a(S'Best'
p492
S'Actor'
p493
S'in'
p494
g33
S'Limited'
p495
S'Television'
p496
S'Series'
p497
tp498
a(S'Best'
p499
S'Actress'
p500
S'in'
p501
g33
S'Limited'
p502
tp503
a(S'Best'
p504
S'Original'
p505
S'Screenplay'
p506
tp507
a(S'Best'
p508
S'Drama'
p509
S'Film'
p510
tp511
a(S'Best'
p512
S'Supporting'
p513
S'Actress'
p514
S'for'
p515
S'Fences'
p516
tp517
a(S'Best'
p518
S'Performance'
p519
S'by'
p520
S'an'
p521
S'Actress'
p522
S'In'
p523
S'A'
p524
S'Television'
p525
S'Series'
p526
tp527
a(S'Best'
p528
S'Actor'
p529
S'in'
p530
g33
S'Limited'
p531
tp532
a(S'Best'
p533
S'Actress'
p534
S'in'
p535
g33
S'Supporting'
p536
S'Role'
p537
tp538
a(S'Best'
p539
S'Golden'
p540
S'Globe'
p541
tp542
a(S'Best'
p543
S'Musical'
p544
tp545
a(S'Best'
p546
S'Performance'
p547
S'by'
p548
S'an'
p549
S'Actress'
p550
S'in'
p551
g33
S'Limited'
p552
S'Series'
p553
tp554
a(S'Best'
p555
S'Actor'
p556
S'in'
p557
g33
S'Drama'
p558
S'Film'
p559
tp560
a(S'Best'
p561
S'Actor'
p562
S'Limited'
p563
tp564
a(S'Best'
p565
S'Supporting'
p566
S'Actor'
p567
S'in'
p568
g33
S'Series'
p569
tp570
a(S'Best'
p571
S'Original'
p572
S'Song'
p573
S'in'
p574
g33
S'Motion'
p575
S'Picture'
p576
tp577
a(S'Best'
p578
S'Series'
p579
tp580
a(S'Best'
p581
S'Actress'
p582
S'in'
p583
g33
S'Drama'
p584
S'Series'
p585
tp586
a(S'Best'
p587
S'Television'
p588
S'Limited'
p589
S'Series'
p590
S'or'
p591
S'Motion'
p592
S'Picture'
p593
S'Made'
p594
S'for'
p595
S'Television'
p596
tp597
a(S'Best'
p598
S'Drama'
p599
S'Actress'
p600
tp601
a(S'Best'
p602
S'Original'
p603
S'Score'
p604
S'in'
p605
g33
S'Motion'
p606
S'Picture'
p607
tp608
a(S'Best'
p609
S'Actress'
p610
S'in'
p611
g33
S'Motion'
p612
S'Picture'
p613
S'Musical'
p614
S'or'
p615
S'Comedy'
p616
tp617
a(S'Best'
p618
S'of'
p619
S'Luck'
p620
tp621
a(S'Best'
p622
S'Actress'
p623
S'in'
p624
g33
S'Motion'
p625
tp626
a(S'Best'
p627
S'Wishes'
p628
tp629
a(S'Best'
p630
S'Actor'
p631
S'in'
p632
g33
S'Miniseries'
p633
S'or'
p634
S'Television'
p635
S'Film'
p636
tp637
a(S'Best'
p638
S'Performance'
p639
S'by'
p640
S'an'
p641
S'Actor'
p642
S'in'
p643
g33
S'Motion'
p644
S'Picture'
p645
S'Drama'
p646
tp647
a(S'Best'
p648
S'Motion'
p649
S'Picture'
p650
S'Animated'
p651
tp652
a(S'Best'
p653
S'Actor'
p654
S'in'
p655
g33
S'Comedy'
p656
S'or'
p657
S'Musical'
p658
S'for'
p659
S'La'
p660
S'La'
p661
S'Land'
p662
tp663
a(S'Best'
p664
S'Motion'
p665
S'Picture'
p666
S'Comedy'
p667
S'or'
p668
S'Musical'
p669
tp670
a(S'Best'
p671
S'Performance'
p672
S'by'
p673
S'an'
p674
S'Actor'
p675
S'in'
p676
g33
S'Supporting'
p677
S'Role'
p678
S'in'
p679
g33
S'Series'
p680
tp681
a(S'Best'
p682
S'Original'
p683
tp684
a(S'Best'
p685
S'Actor'
p686
S'Comedy'
p687
tp688
a(S'Best'
p689
S'Television'
p690
S'Series'
p691
S'Musical'
p692
S'or'
p693
S'Comedy'
p694
tp695
a(S'Best'
p696
S'Limited'
p697
S'Series'
p698
S'or'
p699
S'Motion'
p700
S'Picture'
p701
S'Made'
p702
S'for'
p703
S'Television'
p704
tp705
a(S'Best'
p706
S'and'
p707
S'Worst'
p708
S'Dressed'
p709
tp710
a(S'Best'
p711
S'Original'
p712
S'Score'
p713
S'Motion'
p714
S'Picture'
p715
tp716
a(S'Best'
p717
S'Film'
p718
S'Director'
p719
tp720
a(S'Best'
p721
S'Actress'
p722
S'in'
p723
g33
S'Leading'
p724
S'Role'
p725
S'in'
p726
g33
S'Series'
p727
tp728
a(S'Best'
p729
S'Comedy'
p730
S'or'
p731
S'Musical'
p732
S'Series'
p733
S'Actor'
p734
tp735
a(S'Best'
p736
S'Television'
p737
S'Series'
p738
S'Comedy'
p739
S'or'
p740
S'Musical'
p741
tp742
a(S'Best'
p743
S'Performance'
p744
S'by'
p745
S'an'
p746
S'Actor'
p747
S'in'
p748
g33
S'Limited'
p749
S'Series'
p750
S'or'
p751
g33
S'Motion'
p752
S'Picture'
p753
S'Made'
p754
S'for'
p755
S'Television'
p756
tp757
a(S'Best'
p758
S'Performance'
p759
S'by'
p760
S'an'
p761
S'Actress'
p762
S'in'
p763
g33
S'Motion'
p764
S'Picture'
p765
S'Drama'
p766
tp767
a(S'Best'
p768
S'Actress'
p769
S'in'
p770
g33
S'Television'
p771
tp772
a.